; Function Attrs: mustprogress nofree norecurse nosync nounwind memory(readwrite, inaccessiblemem: none) uwtable
define hidden void @_ZN6Tarjan4LINKEPS_S0_(ptr noundef nonnull align 8 dereferenceable(80) %0, ptr noundef %1, ptr noundef readnone %2) local_unnamed_addr #3 align 2 {
  %4 = getelementptr inbounds i8, ptr %1, i64 24
  %5 = load ptr, ptr %4, align 8
  %6 = getelementptr inbounds i8, ptr %5, i64 8
  %7 = load i32, ptr %6, align 8
  %8 = getelementptr inbounds i8, ptr %1, i64 40
  %9 = load ptr, ptr %8, align 8
  %10 = getelementptr inbounds i8, ptr %9, i64 24
  %11 = load ptr, ptr %10, align 8
  %12 = getelementptr inbounds i8, ptr %11, i64 8
  %13 = load i32, ptr %12, align 8
  %14 = icmp ult i32 %7, %13
  br i1 %14, label %.lr.ph, label %._crit_edge

.lr.ph:                                           ; preds = %3, %35
  %15 = phi ptr [ %40, %35 ], [ %9, %3 ]
  %16 = phi ptr [ %39, %35 ], [ %8, %3 ]
  %.026 = phi ptr [ %.1, %35 ], [ %1, %3 ]
  %17 = getelementptr inbounds i8, ptr %.026, i64 12
  %18 = load i32, ptr %17, align 4
  %19 = getelementptr inbounds i8, ptr %15, i64 40
  %20 = load ptr, ptr %19, align 8
  %21 = getelementptr inbounds i8, ptr %20, i64 12
  %22 = load i32, ptr %21, align 4
  %23 = add i32 %22, %18
  %24 = getelementptr inbounds i8, ptr %15, i64 12
  %25 = load i32, ptr %24, align 4
  %26 = shl i32 %25, 1
  %.not25 = icmp ult i32 %23, %26
  br i1 %.not25, label %32, label %27

27:                                               ; preds = %.lr.ph
  %28 = getelementptr inbounds i8, ptr %15, i64 32
  store ptr %.026, ptr %28, align 8
  %29 = load ptr, ptr %16, align 8
  %30 = getelementptr inbounds i8, ptr %29, i64 40
  %31 = load ptr, ptr %30, align 8
  store ptr %31, ptr %16, align 8
  br label %35

32:                                               ; preds = %.lr.ph
  store i32 %18, ptr %24, align 4
  %33 = load ptr, ptr %16, align 8
  %34 = getelementptr inbounds i8, ptr %.026, i64 32
  store ptr %33, ptr %34, align 8
  br label %35

35:                                               ; preds = %32, %27
  %.1 = phi ptr [ %.026, %27 ], [ %33, %32 ]
  %36 = load ptr, ptr %4, align 8
  %37 = getelementptr inbounds i8, ptr %36, i64 8
  %38 = load i32, ptr %37, align 8
  %39 = getelementptr inbounds i8, ptr %.1, i64 40
  %40 = load ptr, ptr %39, align 8
  %41 = getelementptr inbounds i8, ptr %40, i64 24
  %42 = load ptr, ptr %41, align 8
  %43 = getelementptr inbounds i8, ptr %42, i64 8
  %44 = load i32, ptr %43, align 8
  %45 = icmp ult i32 %38, %44
  br i1 %45, label %.lr.ph, label %._crit_edge, !llvm.loop !8

._crit_edge:                                      ; preds = %35, %3
  %.0.lcssa = phi ptr [ %1, %3 ], [ %.1, %35 ]
  %.lcssa = phi ptr [ %5, %3 ], [ %36, %35 ]
  %46 = getelementptr inbounds i8, ptr %.0.lcssa, i64 24
  store ptr %.lcssa, ptr %46, align 8
  %47 = getelementptr inbounds i8, ptr %1, i64 12
  %48 = load i32, ptr %47, align 4
  %49 = getelementptr inbounds i8, ptr %0, i64 12
  %50 = load i32, ptr %49, align 4
  %51 = add i32 %50, %48
  store i32 %51, ptr %49, align 4
  %52 = load i32, ptr %47, align 4
  %53 = shl i32 %52, 1
  %54 = icmp ult i32 %51, %53
  br i1 %54, label %55, label %58

55:                                               ; preds = %._crit_edge
  %56 = getelementptr inbounds i8, ptr %0, i64 40
  %57 = load ptr, ptr %56, align 8
  store ptr %.0.lcssa, ptr %56, align 8
  br label %58

58:                                               ; preds = %55, %._crit_edge
  %.2 = phi ptr [ %57, %55 ], [ %.0.lcssa, %._crit_edge ]
  %.not28 = icmp eq ptr %.2, %2
  br i1 %.not28, label %._crit_edge32, label %.lr.ph31

.lr.ph31:                                         ; preds = %58, %.lr.ph31
  %.329 = phi ptr [ %61, %.lr.ph31 ], [ %.2, %58 ]
  %59 = getelementptr inbounds i8, ptr %.329, i64 32
  store ptr %0, ptr %59, align 8
  %60 = getelementptr inbounds i8, ptr %.329, i64 40
  %61 = load ptr, ptr %60, align 8
  %.not = icmp eq ptr %61, %2
  br i1 %.not, label %._crit_edge32, label %.lr.ph31, !llvm.loop !9

._crit_edge32:                                    ; preds = %.lr.ph31, %58
  ret void
}